target datalayout = "e-m:e-p270:32:32-p271:32:32-p272:64:64-i64:64-i128:128-f80:128-n8:16:32:64-S128"
target triple = "x86_64-pc-linux-gnu"

%struct.color_t = type { i16, i16, i16 }
%struct._color_filter = type { ptr, ptr, %struct.color_t, %struct.color_t, i8, ptr }
%struct._color_clone = type { ptr, ptr }

; Function Attrs: null_pointer_is_valid sspstrong uwtable
define internal ptr @color_filter_clone(ptr noundef %0) #0 {
  %2 = alloca ptr, align 8
  %3 = alloca ptr, align 8
  %4 = alloca i64, align 8
  %5 = alloca i64, align 8
  %6 = alloca ptr, align 8
  %7 = alloca ptr, align 8
  store ptr %0, ptr %2, align 8
  call void @llvm.lifetime.start.p0(i64 8, ptr %3) #13
  call void @llvm.lifetime.start.p0(i64 8, ptr %4) #13
  store i64 1, ptr %4, align 8
  call void @llvm.lifetime.start.p0(i64 8, ptr %5) #13
  store i64 40, ptr %5, align 8
  call void @llvm.lifetime.start.p0(i64 8, ptr %6) #13
  %8 = load i64, ptr %5, align 8
  %9 = icmp eq i64 %8, 1
  br i1 %9, label %10, label %13

10:                                               ; preds = %1
  %11 = load i64, ptr %4, align 8
  %12 = call noalias ptr @g_malloc(i64 noundef %11) #14
  store ptr %12, ptr %6, align 8
  br label %34

13:                                               ; preds = %1
  %14 = load i64, ptr %4, align 8
  %15 = call i1 @llvm.is.constant.i64(i64 %14)
  br i1 %15, label %16, label %29

16:                                               ; preds = %13
  %17 = load i64, ptr %5, align 8
  %18 = icmp eq i64 %17, 0
  br i1 %18, label %24, label %19

19:                                               ; preds = %16
  %20 = load i64, ptr %4, align 8
  %21 = load i64, ptr %5, align 8
  %22 = udiv i64 -1, %21
  %23 = icmp ule i64 %20, %22
  br i1 %23, label %24, label %29

24:                                               ; preds = %19, %16
  %25 = load i64, ptr %4, align 8
  %26 = load i64, ptr %5, align 8
  %27 = mul i64 %25, %26
  %28 = call noalias ptr @g_malloc(i64 noundef %27) #14
  store ptr %28, ptr %6, align 8
  br label %33

29:                                               ; preds = %19, %13
  %30 = load i64, ptr %4, align 8
  %31 = load i64, ptr %5, align 8
  %32 = call noalias ptr @g_malloc_n(i64 noundef %30, i64 noundef %31) #15
  store ptr %32, ptr %6, align 8
  br label %33

33:                                               ; preds = %29, %24
  br label %34

34:                                               ; preds = %33, %10
  %35 = load ptr, ptr %6, align 8
  store ptr %35, ptr %7, align 8
  call void @llvm.lifetime.end.p0(i64 8, ptr %6) #13
  call void @llvm.lifetime.end.p0(i64 8, ptr %5) #13
  call void @llvm.lifetime.end.p0(i64 8, ptr %4) #13
  %36 = load ptr, ptr %7, align 8
  store ptr %36, ptr %3, align 8
  %37 = load ptr, ptr %2, align 8
  %38 = getelementptr inbounds nuw %struct._color_filter, ptr %37, i32 0, i32 0
  %39 = load ptr, ptr %38, align 8
  %40 = call noalias ptr @g_strdup(ptr noundef %39)
  %41 = load ptr, ptr %3, align 8
  %42 = getelementptr inbounds nuw %struct._color_filter, ptr %41, i32 0, i32 0
  store ptr %40, ptr %42, align 8
  %43 = load ptr, ptr %2, align 8
  %44 = getelementptr inbounds nuw %struct._color_filter, ptr %43, i32 0, i32 1
  %45 = load ptr, ptr %44, align 8
  %46 = call noalias ptr @g_strdup(ptr noundef %45)
  %47 = load ptr, ptr %3, align 8
  %48 = getelementptr inbounds nuw %struct._color_filter, ptr %47, i32 0, i32 1
  store ptr %46, ptr %48, align 8
  %49 = load ptr, ptr %3, align 8
  %50 = getelementptr inbounds nuw %struct._color_filter, ptr %49, i32 0, i32 2
  %51 = load ptr, ptr %2, align 8
  %52 = getelementptr inbounds nuw %struct._color_filter, ptr %51, i32 0, i32 2
  call void @llvm.memcpy.p0.p0.i64(ptr align 8 %50, ptr align 8 %52, i64 6, i1 false)
  %53 = load ptr, ptr %3, align 8
  %54 = getelementptr inbounds nuw %struct._color_filter, ptr %53, i32 0, i32 3
  %55 = load ptr, ptr %2, align 8
  %56 = getelementptr inbounds nuw %struct._color_filter, ptr %55, i32 0, i32 3
  call void @llvm.memcpy.p0.p0.i64(ptr align 2 %54, ptr align 2 %56, i64 6, i1 false)
  %57 = load ptr, ptr %2, align 8
  %58 = getelementptr inbounds nuw %struct._color_filter, ptr %57, i32 0, i32 4
  %59 = load i8, ptr %58, align 4, !range !6, !noundef !7
  %60 = trunc i8 %59 to i1
  %61 = load ptr, ptr %3, align 8
  %62 = getelementptr inbounds nuw %struct._color_filter, ptr %61, i32 0, i32 4
  %63 = zext i1 %60 to i8
  store i8 %63, ptr %62, align 4
  %64 = load ptr, ptr %3, align 8
  %65 = getelementptr inbounds nuw %struct._color_filter, ptr %64, i32 0, i32 5
  store ptr null, ptr %65, align 8
  %66 = load ptr, ptr %3, align 8
  call void @llvm.lifetime.end.p0(i64 8, ptr %3) #13
  ret ptr %66
}

; Function Attrs: null_pointer_is_valid sspstrong uwtable
define internal void @color_filters_clone_cb(ptr noundef %0, ptr noundef %1) #0 {
  %3 = alloca ptr, align 8
  %4 = alloca ptr, align 8
  %5 = alloca ptr, align 8
  %6 = alloca ptr, align 8
  store ptr %0, ptr %3, align 8
  store ptr %1, ptr %4, align 8
  call void @llvm.lifetime.start.p0(i64 8, ptr %5) #13
  %7 = load ptr, ptr %4, align 8
  store ptr %7, ptr %5, align 8
  call void @llvm.lifetime.start.p0(i64 8, ptr %6) #13
  %8 = load ptr, ptr %3, align 8
  %9 = call ptr @color_filter_clone(ptr noundef %8)
  store ptr %9, ptr %6, align 8
  %10 = load ptr, ptr %5, align 8
  %11 = getelementptr inbounds nuw %struct._color_clone, ptr %10, i32 0, i32 1
  %12 = load ptr, ptr %11, align 8
  %13 = load ptr, ptr %6, align 8
  %14 = load ptr, ptr %5, align 8
  %15 = getelementptr inbounds nuw %struct._color_clone, ptr %14, i32 0, i32 0
  %16 = load ptr, ptr %15, align 8
  call void %12(ptr noundef %13, ptr noundef %16)
  call void @llvm.lifetime.end.p0(i64 8, ptr %6) #13
  call void @llvm.lifetime.end.p0(i64 8, ptr %5) #13
  ret void
}