; Function Attrs: null_pointer_is_valid sspstrong uwtable
define internal void @color_filters_clone_cb(ptr noundef readonly captures(none) %0, ptr noundef readonly captures(none) %1) #0 {
  %3 = tail call noalias dereferenceable_or_null(40) ptr @g_malloc(i64 noundef 40) #12
  %4 = load ptr, ptr %0, align 8
  %5 = tail call noalias ptr @g_strdup(ptr noundef %4)
  store ptr %5, ptr %3, align 8
  %6 = getelementptr inbounds nuw i8, ptr %0, i64 8
  %7 = load ptr, ptr %6, align 8
  %8 = tail call noalias ptr @g_strdup(ptr noundef %7)
  %9 = getelementptr inbounds nuw i8, ptr %3, i64 8
  store ptr %8, ptr %9, align 8
  %10 = getelementptr inbounds nuw i8, ptr %3, i64 16
  %11 = getelementptr inbounds nuw i8, ptr %0, i64 16
  tail call void @llvm.memcpy.p0.p0.i64(ptr noundef nonnull align 8 dereferenceable(6) %10, ptr noundef nonnull readonly align 8 dereferenceable(6) %11, i64 6, i1 false)
  %12 = getelementptr inbounds nuw i8, ptr %3, i64 22
  %13 = getelementptr inbounds nuw i8, ptr %0, i64 22
  tail call void @llvm.memcpy.p0.p0.i64(ptr noundef nonnull align 2 dereferenceable(6) %12, ptr noundef nonnull readonly align 2 dereferenceable(6) %13, i64 6, i1 false)
  %14 = getelementptr inbounds nuw i8, ptr %0, i64 28
  %15 = load i8, ptr %14, align 4, !range !6, !noundef !7
  %16 = getelementptr inbounds nuw i8, ptr %3, i64 28
  store i8 %15, ptr %16, align 4
  %17 = getelementptr inbounds nuw i8, ptr %3, i64 32
  store ptr null, ptr %17, align 8
  %18 = getelementptr inbounds nuw i8, ptr %1, i64 8
  %19 = load ptr, ptr %18, align 8
  %20 = load ptr, ptr %1, align 8
  tail call void %19(ptr noundef %3, ptr noundef %20)
  ret void
}